; Function Attrs: mustprogress nofree norecurse nosync nounwind willreturn memory(none) uwtable
define dso_local { ptr, i64 } @_ZN4llvm12DISubprogram13getFlagStringENS0_9DISPFlagsE(i32 noundef %0) local_unnamed_addr #5 align 2 {
  switch i32 %0, label %14 [
    i32 2048, label %13
    i32 0, label %2
    i32 1, label %3
    i32 2, label %4
    i32 4, label %5
    i32 8, label %6
    i32 16, label %7
    i32 32, label %8
    i32 64, label %9
    i32 128, label %10
    i32 256, label %11
    i32 512, label %12
  ]

2:                                                ; preds = %1
  br label %14

3:                                                ; preds = %1
  br label %14

4:                                                ; preds = %1
  br label %14

5:                                                ; preds = %1
  br label %14

6:                                                ; preds = %1
  br label %14

7:                                                ; preds = %1
  br label %14

8:                                                ; preds = %1
  br label %14

9:                                                ; preds = %1
  br label %14

10:                                               ; preds = %1
  br label %14

11:                                               ; preds = %1
  br label %14

12:                                               ; preds = %1
  br label %14

13:                                               ; preds = %1
  br label %14

14:                                               ; preds = %1, %13, %12, %11, %10, %9, %8, %7, %6, %5, %4, %3, %2
  %.sroa.15.0 = phi i64 [ 18, %13 ], [ 15, %12 ], [ 22, %11 ], [ 17, %10 ], [ 17, %9 ], [ 12, %8 ], [ 17, %7 ], [ 18, %6 ], [ 19, %5 ], [ 19, %4 ], [ 15, %3 ], [ 12, %2 ], [ 0, %1 ]
  %.sroa.0.0 = phi ptr [ @.str.59, %13 ], [ @.str.58, %12 ], [ @.str.57, %11 ], [ @.str.56, %10 ], [ @.str.55, %9 ], [ @.str.54, %8 ], [ @.str.53, %7 ], [ @.str.52, %6 ], [ @.str.51, %5 ], [ @.str.50, %4 ], [ @.str.49, %3 ], [ @.str.48, %2 ], [ @.str.36, %1 ]
  %.fca.0.insert = insertvalue { ptr, i64 } poison, ptr %.sroa.0.0, 0
  %.fca.1.insert = insertvalue { ptr, i64 } %.fca.0.insert, i64 %.sroa.15.0, 1
  ret { ptr, i64 } %.fca.1.insert
}